; Function Attrs: mustprogress uwtable
define void @_ZN3zmq7dgram_t12xattach_pipeEPNS_6pipe_tEbb(ptr nocapture noundef nonnull align 8 dereferenceable(1848) %this, ptr noundef %pipe_, i1 zeroext %subscribe_to_all_, i1 zeroext %locally_initiated_) unnamed_addr #0 align 2 {
entry:
  %tobool.not = icmp eq ptr %pipe_, null
  br i1 %tobool.not, label %if.then, label %do.end

if.then:                                          ; preds = %entry
  %0 = load ptr, ptr @stderr, align 8
  %call = tail call i32 (ptr, ptr, ...) @fprintf(ptr noundef %0, ptr noundef nonnull @.str, ptr noundef nonnull @.str.3, ptr noundef nonnull @.str.2, i32 noundef 31) #11
  %1 = load ptr, ptr @stderr, align 8
  %call3 = tail call i32 @fflush(ptr noundef %1)
  tail call void @_ZN3zmq9zmq_abortEPKc(ptr noundef nonnull @.str.3)
  br label %do.end

do.end:                                           ; preds = %entry, %if.then
  %_pipe = getelementptr inbounds i8, ptr %this, i64 1832
  %2 = load ptr, ptr %_pipe, align 8
  %cmp = icmp eq ptr %2, null
  br i1 %cmp, label %if.then4, label %if.else

if.then4:                                         ; preds = %do.end
  store ptr %pipe_, ptr %_pipe, align 8
  br label %if.end6

if.else:                                          ; preds = %do.end
  tail call void @_ZN3zmq6pipe_t9terminateEb(ptr noundef nonnull align 8 dereferenceable(328) %pipe_, i1 noundef zeroext false)
  br label %if.end6

if.end6:                                          ; preds = %if.else, %if.then4
  ret void
}